; ModuleID = '31/1231.c'
source_filename = "31/1231.c"
target datalayout = "e-m:e-p270:32:32-p271:32:32-p272:64:64-i64:64-f80:128-n8:16:32:64-S128"
target triple = "x86_64-pc-linux-gnu"

%struct.student = type { [20 x i8], [20 x i8], i8, i32, float, [20 x i8], %struct.student* }

@.str = private unnamed_addr constant [3 x i8] c"%s\00", align 1
@.str.1 = private unnamed_addr constant [12 x i8] c"%s %c%d%f%s\00", align 1
@.str.2 = private unnamed_addr constant [19 x i8] c"%s %s %c %d %g %s\0A\00", align 1

; Function Attrs: noinline nounwind uwtable
define dso_local void @main() #0 {
  %1 = alloca %struct.student*, align 8
  %2 = alloca %struct.student*, align 8
  %3 = alloca %struct.student*, align 8
  %4 = alloca %struct.student*, align 8
  %5 = call noalias i8* @malloc(i64 100) #3
  %6 = bitcast i8* %5 to %struct.student*
  store %struct.student* %6, %struct.student** %2, align 8
  store %struct.student* %6, %struct.student** %1, align 8
  %7 = load %struct.student*, %struct.student** %1, align 8
  %8 = getelementptr inbounds %struct.student, %struct.student* %7, i32 0, i32 0
  %9 = getelementptr inbounds [20 x i8], [20 x i8]* %8, i64 0, i64 0
  %10 = call i32 (i8*, ...) @__isoc99_scanf(i8* getelementptr inbounds ([3 x i8], [3 x i8]* @.str, i64 0, i64 0), i8* %9)
  %11 = load %struct.student*, %struct.student** %1, align 8
  %12 = getelementptr inbounds %struct.student, %struct.student* %11, i32 0, i32 6
  store %struct.student* null, %struct.student** %12, align 8
  br label %13

13:                                               ; preds = %20, %0
  %14 = load %struct.student*, %struct.student** %1, align 8
  %15 = getelementptr inbounds %struct.student, %struct.student* %14, i32 0, i32 0
  %16 = getelementptr inbounds [20 x i8], [20 x i8]* %15, i64 0, i64 0
  %17 = load i8, i8* %16, align 8
  %18 = sext i8 %17 to i32
  %19 = icmp ne i32 %18, 101
  br i1 %19, label %20, label %44

20:                                               ; preds = %13
  %21 = load %struct.student*, %struct.student** %1, align 8
  %22 = getelementptr inbounds %struct.student, %struct.student* %21, i32 0, i32 1
  %23 = getelementptr inbounds [20 x i8], [20 x i8]* %22, i64 0, i64 0
  %24 = load %struct.student*, %struct.student** %1, align 8
  %25 = getelementptr inbounds %struct.student, %struct.student* %24, i32 0, i32 2
  %26 = load %struct.student*, %struct.student** %1, align 8
  %27 = getelementptr inbounds %struct.student, %struct.student* %26, i32 0, i32 3
  %28 = load %struct.student*, %struct.student** %1, align 8
  %29 = getelementptr inbounds %struct.student, %struct.student* %28, i32 0, i32 4
  %30 = load %struct.student*, %struct.student** %1, align 8
  %31 = getelementptr inbounds %struct.student, %struct.student* %30, i32 0, i32 5
  %32 = getelementptr inbounds [20 x i8], [20 x i8]* %31, i64 0, i64 0
  %33 = call i32 (i8*, ...) @__isoc99_scanf(i8* getelementptr inbounds ([12 x i8], [12 x i8]* @.str.1, i64 0, i64 0), i8* %23, i8* %25, i32* %27, float* %29, i8* %32)
  %34 = call noalias i8* @malloc(i64 100) #3
  %35 = bitcast i8* %34 to %struct.student*
  store %struct.student* %35, %struct.student** %1, align 8
  %36 = load %struct.student*, %struct.student** %2, align 8
  %37 = load %struct.student*, %struct.student** %1, align 8
  %38 = getelementptr inbounds %struct.student, %struct.student* %37, i32 0, i32 6
  store %struct.student* %36, %struct.student** %38, align 8
  %39 = load %struct.student*, %struct.student** %1, align 8
  store %struct.student* %39, %struct.student** %2, align 8
  %40 = load %struct.student*, %struct.student** %1, align 8
  %41 = getelementptr inbounds %struct.student, %struct.student* %40, i32 0, i32 0
  %42 = getelementptr inbounds [20 x i8], [20 x i8]* %41, i64 0, i64 0
  %43 = call i32 (i8*, ...) @__isoc99_scanf(i8* getelementptr inbounds ([3 x i8], [3 x i8]* @.str, i64 0, i64 0), i8* %42)
  br label %13

44:                                               ; preds = %13
  %45 = load %struct.student*, %struct.student** %2, align 8
  %46 = getelementptr inbounds %struct.student, %struct.student* %45, i32 0, i32 6
  %47 = load %struct.student*, %struct.student** %46, align 8
  store %struct.student* %47, %struct.student** %3, align 8
  store %struct.student* %47, %struct.student** %4, align 8
  br label %48

48:                                               ; preds = %51, %44
  %49 = load %struct.student*, %struct.student** %4, align 8
  %50 = icmp ne %struct.student* %49, null
  br i1 %50, label %51, label %76

51:                                               ; preds = %48
  %52 = load %struct.student*, %struct.student** %4, align 8
  %53 = getelementptr inbounds %struct.student, %struct.student* %52, i32 0, i32 0
  %54 = getelementptr inbounds [20 x i8], [20 x i8]* %53, i64 0, i64 0
  %55 = load %struct.student*, %struct.student** %4, align 8
  %56 = getelementptr inbounds %struct.student, %struct.student* %55, i32 0, i32 1
  %57 = getelementptr inbounds [20 x i8], [20 x i8]* %56, i64 0, i64 0
  %58 = load %struct.student*, %struct.student** %4, align 8
  %59 = getelementptr inbounds %struct.student, %struct.student* %58, i32 0, i32 2
  %60 = load i8, i8* %59, align 8
  %61 = sext i8 %60 to i32
  %62 = load %struct.student*, %struct.student** %4, align 8
  %63 = getelementptr inbounds %struct.student, %struct.student* %62, i32 0, i32 3
  %64 = load i32, i32* %63, align 4
  %65 = load %struct.student*, %struct.student** %4, align 8
  %66 = getelementptr inbounds %struct.student, %struct.student* %65, i32 0, i32 4
  %67 = load float, float* %66, align 8
  %68 = fpext float %67 to double
  %69 = load %struct.student*, %struct.student** %4, align 8
  %70 = getelementptr inbounds %struct.student, %struct.student* %69, i32 0, i32 5
  %71 = getelementptr inbounds [20 x i8], [20 x i8]* %70, i64 0, i64 0
  %72 = call i32 (i8*, ...) @printf(i8* getelementptr inbounds ([19 x i8], [19 x i8]* @.str.2, i64 0, i64 0), i8* %54, i8* %57, i32 %61, i32 %64, double %68, i8* %71)
  %73 = load %struct.student*, %struct.student** %4, align 8
  %74 = getelementptr inbounds %struct.student, %struct.student* %73, i32 0, i32 6
  %75 = load %struct.student*, %struct.student** %74, align 8
  store %struct.student* %75, %struct.student** %4, align 8
  br label %48

76:                                               ; preds = %48
  ret void
}

; Function Attrs: nounwind
declare dso_local noalias i8* @malloc(i64) #1

declare dso_local i32 @__isoc99_scanf(i8*, ...) #2

declare dso_local i32 @printf(i8*, ...) #2


!llvm.module.flags = !{!0}
!llvm.ident = !{!1}

!0 = !{i32 1, !"wchar_size", i32 4}
!1 = !{!"clang version 10.0.0-4ubuntu1 "}
